; ModuleID = 'source-C-CXX/22/1002.c'
source_filename = "source-C-CXX/22/1002.c"
target datalayout = "e-m:e-p270:32:32-p271:32:32-p272:64:64-i64:64-f80:128-n8:16:32:64-S128"
target triple = "x86_64-pc-linux-gnu"

; Function Attrs: nounwind sspstrong uwtable
define dso_local void @main() local_unnamed_addr #0 {
  %1 = alloca [100 x i8], align 16
  %2 = getelementptr inbounds [100 x i8], [100 x i8]* %1, i64 0, i64 0
  call void @llvm.lifetime.start.p0i8(i64 100, i8* nonnull %2) #5
  %3 = call i32 (i8*, ...) bitcast (i32 (...)* @gets to i32 (i8*, ...)*)(i8* nonnull %2) #5
  %4 = call i64 @strlen(i8* noundef nonnull %2) #6
  %5 = trunc i64 %4 to i32
  %6 = icmp sgt i32 %5, 0
  br i1 %6, label %7, label %44

7:                                                ; preds = %0
  %8 = shl i64 %4, 32
  %9 = ashr exact i64 %8, 32
  %10 = and i64 %4, 4294967295
  br label %11

11:                                               ; preds = %7, %40
  %12 = phi i64 [ %10, %7 ], [ %43, %40 ]
  %13 = phi i64 [ %9, %7 ], [ %42, %40 ]
  %14 = phi i32 [ %5, %7 ], [ %15, %40 ]
  %15 = add nsw i32 %14, -1
  %16 = zext i32 %15 to i64
  %17 = getelementptr inbounds [100 x i8], [100 x i8]* %1, i64 0, i64 %16
  %18 = load i8, i8* %17, align 1, !tbaa !5
  %19 = icmp eq i8 %18, 32
  br i1 %19, label %20, label %30

20:                                               ; preds = %11, %24
  %21 = phi i64 [ %27, %24 ], [ %13, %11 ]
  %22 = getelementptr inbounds [100 x i8], [100 x i8]* %1, i64 0, i64 %21
  %23 = load i8, i8* %22, align 1, !tbaa !5
  switch i8 %23, label %24 [
    i8 32, label %28
    i8 0, label %28
  ]

24:                                               ; preds = %20
  %25 = sext i8 %23 to i32
  %26 = call i32 @putchar(i32 %25)
  %27 = add i64 %21, 1
  br label %20, !llvm.loop !8

28:                                               ; preds = %20, %20
  %29 = call i32 @putchar(i32 32)
  br label %30

30:                                               ; preds = %28, %11
  %31 = icmp eq i32 %15, 0
  br i1 %31, label %32, label %40

32:                                               ; preds = %30, %36
  %33 = phi i64 [ %39, %36 ], [ 0, %30 ]
  %34 = getelementptr inbounds [100 x i8], [100 x i8]* %1, i64 0, i64 %33
  %35 = load i8, i8* %34, align 1, !tbaa !5
  switch i8 %35, label %36 [
    i8 32, label %40
    i8 0, label %40
  ]

36:                                               ; preds = %32
  %37 = sext i8 %35 to i32
  %38 = call i32 @putchar(i32 %37)
  %39 = add nuw i64 %33, 1
  br label %32, !llvm.loop !10

40:                                               ; preds = %32, %32, %30
  %41 = icmp sgt i64 %12, 1
  %42 = add nsw i64 %13, -1
  %43 = add nsw i64 %12, -1
  br i1 %41, label %11, label %44, !llvm.loop !11

44:                                               ; preds = %40, %0
  call void @llvm.lifetime.end.p0i8(i64 100, i8* nonnull %2) #5
  ret void
}

; Function Attrs: argmemonly mustprogress nofree nosync nounwind willreturn
declare void @llvm.lifetime.start.p0i8(i64 immarg, i8* nocapture) #1

declare i32 @gets(...) local_unnamed_addr #2

; Function Attrs: argmemonly mustprogress nofree nounwind readonly willreturn
declare i64 @strlen(i8* nocapture) local_unnamed_addr #3

; Function Attrs: argmemonly mustprogress nofree nosync nounwind willreturn
declare void @llvm.lifetime.end.p0i8(i64 immarg, i8* nocapture) #1

; Function Attrs: nofree nounwind
declare noundef i32 @putchar(i32 noundef) local_unnamed_addr #4


!llvm.module.flags = !{!0, !1, !2, !3}
!llvm.ident = !{!4}

!0 = !{i32 1, !"wchar_size", i32 4}
!1 = !{i32 7, !"PIC Level", i32 2}
!2 = !{i32 7, !"PIE Level", i32 2}
!3 = !{i32 7, !"uwtable", i32 1}
!4 = !{!"clang version 13.0.0"}
!5 = !{!6, !6, i64 0}
!6 = !{!"omnipotent char", !7, i64 0}
!7 = !{!"Simple C/C++ TBAA"}
!8 = distinct !{!8, !9}
!9 = !{!"llvm.loop.mustprogress"}
!10 = distinct !{!10, !9}
!11 = distinct !{!11, !9}
